target datalayout = "e-m:e-p270:32:32-p271:32:32-p272:64:64-i64:64-i128:128-f80:128-n8:16:32:64-S128"
target triple = "x86_64-pc-linux-gnu"

%struct.lua_State = type { %struct.GCRef, i8, i8, i8, i8, %struct.MRef, %struct.GCRef, ptr, ptr, %struct.MRef, %struct.MRef, %struct.GCRef, %struct.GCRef, ptr, i32 }
%struct.MRef = type { i64 }
%struct.GCRef = type { i64 }
%union.TValue = type { i64 }
%struct.GCstr = type { %struct.GCRef, i8, i8, i8, i8, i32, i32, i32 }

; Function Attrs: alwaysinline nounwind uwtable
define internal void @setintV(ptr noundef %0, i32 noundef %1) #1 {
  %3 = alloca ptr, align 8
  %4 = alloca i32, align 4
  store ptr %0, ptr %3, align 8, !tbaa !17
  store i32 %1, ptr %4, align 4, !tbaa !29
  %5 = load i32, ptr %4, align 4, !tbaa !29
  %6 = sitofp i32 %5 to double
  %7 = load ptr, ptr %3, align 8, !tbaa !17
  store double %6, ptr %7, align 8, !tbaa !16
  ret void
}

; Function Attrs: nounwind uwtable
define internal i32 @lj_cf_select(ptr noundef %0) #3 {
  %2 = alloca i32, align 4
  %3 = alloca ptr, align 8
  %4 = alloca i32, align 4
  %5 = alloca i32, align 4
  %6 = alloca i32, align 4
  store ptr %0, ptr %3, align 8, !tbaa !4
  call void @llvm.lifetime.start.p0(i64 4, ptr %4) #11
  %7 = load ptr, ptr %3, align 8, !tbaa !4
  %8 = getelementptr inbounds nuw %struct.lua_State, ptr %7, i32 0, i32 8
  %9 = load ptr, ptr %8, align 8, !tbaa !9
  %10 = load ptr, ptr %3, align 8, !tbaa !4
  %11 = getelementptr inbounds nuw %struct.lua_State, ptr %10, i32 0, i32 7
  %12 = load ptr, ptr %11, align 8, !tbaa !32
  %13 = ptrtoint ptr %9 to i64
  %14 = ptrtoint ptr %12 to i64
  %15 = sub i64 %13, %14
  %16 = sdiv exact i64 %15, 8
  %17 = trunc i64 %16 to i32
  store i32 %17, ptr %4, align 4, !tbaa !29
  %18 = load i32, ptr %4, align 4, !tbaa !29
  %19 = icmp sge i32 %18, 1
  br i1 %19, label %20, label %47

20:                                               ; preds = %1
  %21 = load ptr, ptr %3, align 8, !tbaa !4
  %22 = getelementptr inbounds nuw %struct.lua_State, ptr %21, i32 0, i32 7
  %23 = load ptr, ptr %22, align 8, !tbaa !32
  %24 = load i64, ptr %23, align 8, !tbaa !16
  %25 = ashr i64 %24, 47
  %26 = trunc i64 %25 to i32
  %27 = icmp eq i32 %26, -5
  br i1 %27, label %28, label %47

28:                                               ; preds = %20
  %29 = load ptr, ptr %3, align 8, !tbaa !4
  %30 = getelementptr inbounds nuw %struct.lua_State, ptr %29, i32 0, i32 7
  %31 = load ptr, ptr %30, align 8, !tbaa !32
  %32 = getelementptr inbounds nuw %struct.GCRef, ptr %31, i32 0, i32 0
  %33 = load i64, ptr %32, align 8, !tbaa !16
  %34 = and i64 %33, 140737488355327
  %35 = inttoptr i64 %34 to ptr
  %36 = getelementptr inbounds %struct.GCstr, ptr %35, i64 1
  %37 = load i8, ptr %36, align 1, !tbaa !16
  %38 = sext i8 %37 to i32
  %39 = icmp eq i32 %38, 35
  br i1 %39, label %40, label %47

40:                                               ; preds = %28
  %41 = load ptr, ptr %3, align 8, !tbaa !4
  %42 = getelementptr inbounds nuw %struct.lua_State, ptr %41, i32 0, i32 8
  %43 = load ptr, ptr %42, align 8, !tbaa !9
  %44 = getelementptr inbounds %union.TValue, ptr %43, i64 -1
  %45 = load i32, ptr %4, align 4, !tbaa !29
  %46 = sub nsw i32 %45, 1
  call void @setintV(ptr noundef %44, i32 noundef %46)
  store i32 1, ptr %2, align 4
  store i32 1, ptr %5, align 4
  br label %72

47:                                               ; preds = %28, %20, %1
  call void @llvm.lifetime.start.p0(i64 4, ptr %6) #11
  %48 = load ptr, ptr %3, align 8, !tbaa !4
  %49 = call i32 @lj_lib_checkint(ptr noundef %48, i32 noundef 1)
  store i32 %49, ptr %6, align 4, !tbaa !29
  %50 = load i32, ptr %6, align 4, !tbaa !29
  %51 = icmp slt i32 %50, 0
  br i1 %51, label %52, label %56

52:                                               ; preds = %47
  %53 = load i32, ptr %4, align 4, !tbaa !29
  %54 = load i32, ptr %6, align 4, !tbaa !29
  %55 = add nsw i32 %53, %54
  store i32 %55, ptr %6, align 4, !tbaa !29
  br label %63

56:                                               ; preds = %47
  %57 = load i32, ptr %6, align 4, !tbaa !29
  %58 = load i32, ptr %4, align 4, !tbaa !29
  %59 = icmp sgt i32 %57, %58
  br i1 %59, label %60, label %62

60:                                               ; preds = %56
  %61 = load i32, ptr %4, align 4, !tbaa !29
  store i32 %61, ptr %6, align 4, !tbaa !29
  br label %62

62:                                               ; preds = %60, %56
  br label %63

63:                                               ; preds = %62, %52
  %64 = load i32, ptr %6, align 4, !tbaa !29
  %65 = icmp slt i32 %64, 1
  br i1 %65, label %66, label %68

66:                                               ; preds = %63
  %67 = load ptr, ptr %3, align 8, !tbaa !4
  call void @lj_err_arg(ptr noundef %67, i32 noundef 1, i32 noundef 1114) #10
  unreachable

68:                                               ; preds = %63
  %69 = load i32, ptr %4, align 4, !tbaa !29
  %70 = load i32, ptr %6, align 4, !tbaa !29
  %71 = sub nsw i32 %69, %70
  store i32 %71, ptr %2, align 4
  store i32 1, ptr %5, align 4
  call void @llvm.lifetime.end.p0(i64 4, ptr %6) #11
  br label %72

72:                                               ; preds = %68, %40
  call void @llvm.lifetime.end.p0(i64 4, ptr %4) #11
  %73 = load i32, ptr %2, align 4
  ret i32 %73
}