; Function Attrs: nounwind uwtable
define internal range(i32 -2147483648, 2147483647) i32 @lj_cf_select(ptr noundef %0) #2 {
  %2 = getelementptr inbounds nuw i8, ptr %0, i64 40
  %3 = load ptr, ptr %2, align 8, !tbaa !4
  %4 = getelementptr inbounds nuw i8, ptr %0, i64 32
  %5 = load ptr, ptr %4, align 8, !tbaa !19
  %6 = ptrtoint ptr %3 to i64
  %7 = ptrtoint ptr %5 to i64
  %8 = sub i64 %6, %7
  %9 = lshr exact i64 %8, 3
  %10 = trunc i64 %9 to i32
  %11 = icmp sgt i32 %10, 0
  br i1 %11, label %12, label %25

12:                                               ; preds = %1
  %13 = load i64, ptr %5, align 8, !tbaa !14
  %.mask = and i64 %13, -140737488355328
  %14 = icmp eq i64 %.mask, -703687441776640
  br i1 %14, label %15, label %25

15:                                               ; preds = %12
  %16 = and i64 %13, 140737488355327
  %17 = inttoptr i64 %16 to ptr
  %18 = getelementptr inbounds nuw i8, ptr %17, i64 24
  %19 = load i8, ptr %18, align 1, !tbaa !14
  %20 = icmp eq i8 %19, 35
  br i1 %20, label %21, label %25

21:                                               ; preds = %15
  %22 = getelementptr inbounds i8, ptr %3, i64 -8
  %23 = add nsw i32 %10, -1
  %24 = uitofp nneg i32 %23 to double
  store double %24, ptr %22, align 8, !tbaa !14
  br label %33

25:                                               ; preds = %15, %12, %1
  %26 = tail call i32 @lj_lib_checkint(ptr noundef nonnull %0, i32 noundef 1) #11
  %27 = icmp slt i32 %26, 0
  %28 = add nsw i32 %26, %10
  %spec.select = tail call i32 @llvm.smin.i32(i32 %26, i32 %10)
  %.0 = select i1 %27, i32 %28, i32 %spec.select
  %29 = icmp slt i32 %.0, 1
  br i1 %29, label %30, label %31

30:                                               ; preds = %25
  tail call void @lj_err_arg(ptr noundef nonnull %0, i32 noundef 1, i32 noundef 1114) #10
  unreachable

31:                                               ; preds = %25
  %32 = sub nsw i32 %10, %.0
  br label %33

33:                                               ; preds = %31, %21
  %.018 = phi i32 [ 1, %21 ], [ %32, %31 ]
  ret i32 %.018
}